target datalayout = "e-m:e-p270:32:32-p271:32:32-p272:64:64-i64:64-i128:128-f80:128-n8:16:32:64-S128"
target triple = "x86_64-pc-linux-gnu"

%struct._zend_object_handlers = type { i32, ptr, ptr, ptr, ptr, ptr, ptr, ptr, ptr, ptr, ptr, ptr, ptr, ptr, ptr, ptr, ptr, ptr, ptr, ptr, ptr, ptr, ptr, ptr, ptr }
%struct._zend_compiler_globals = type { %struct._zend_stack, ptr, ptr, i32, ptr, ptr, ptr, ptr, i8, i8, i8, i8, i8, %struct._zend_llist, ptr, i8, i8, i8, i8, ptr, i32, i32, %struct._zend_oparray_context, %struct._zend_file_context, ptr, %struct._zend_array, ptr, i64, i8, i8, i8, ptr, ptr, %struct._zend_stack, ptr, i32, ptr, ptr, i64, i64, ptr, ptr, ptr, ptr, i32, %struct._zend_stack }
%struct._zend_llist = type { ptr, ptr, i64, i64, ptr, i8, ptr }
%struct._zend_oparray_context = type { i32, i32, i32, i32, i32, i32, i32, ptr, ptr, i8 }
%struct._zend_file_context = type { %struct._zend_declarables, ptr, i8, i8, ptr, ptr, ptr, %struct._zend_array }
%struct._zend_declarables = type { i64 }
%struct._zend_array = type { %struct._zend_refcounted_h, %union.anon.5, i32, %union.anon.7, i32, i32, i32, i32, i64, ptr }
%struct._zend_refcounted_h = type { i32, %union.anon.3 }
%union.anon.3 = type { i32 }
%union.anon.5 = type { i32 }
%union.anon.7 = type { ptr }
%struct._zend_stack = type { i32, i32, i32, ptr }
%struct.zend_type = type { ptr, i32 }
%struct._zend_function_entry = type { ptr, ptr, ptr, i32, i32, ptr, ptr }
%struct._zend_executor_globals = type { %struct._zval_struct, %struct._zval_struct, [32 x ptr], ptr, ptr, %struct._zend_array, %struct._zend_array, ptr, i32, i32, ptr, ptr, ptr, ptr, ptr, ptr, i64, ptr, ptr, i32, i32, i64, i32, i32, i32, i8, i8, %struct.zend_atomic_bool_s, %struct.zend_atomic_bool_s, ptr, i64, ptr, ptr, %struct._zend_array, %struct._zend_array, i32, i8, %struct._zval_struct, %struct._zval_struct, %struct._zend_stack, %struct._zend_stack, %struct._zend_stack, ptr, i32, i32, i64, ptr, ptr, ptr, %struct._zend_objects_store, ptr, ptr, ptr, [3 x %struct._zend_op], ptr, i8, i8, i64, i32, i32, ptr, [16 x %struct._HashTableIterator], ptr, %union._zend_function, %struct._zend_op, %struct._zend_array, i64, %struct.zend_get_gc_buffer, ptr, ptr, ptr, i64, i8, i32, ptr, ptr, i64, %struct._zend_call_stack, i64, i64, [6 x ptr] }
%struct.zend_atomic_bool_s = type { i8 }
%struct._zval_struct = type { %union._zend_value, %union.anon, %union.anon.2 }
%union._zend_value = type { i64 }
%union.anon = type { i32 }
%union.anon.2 = type { i32 }
%struct._zend_objects_store = type { ptr, i32, i32, i32 }
%struct._HashTableIterator = type { ptr, i32, i32 }
%union._zend_function = type { %struct._zend_op_array }
%struct._zend_op_array = type { i8, [3 x i8], i32, ptr, ptr, ptr, i32, i32, ptr, ptr, ptr, ptr, i32, i32, i32, i32, ptr, ptr, ptr, ptr, ptr, i32, i32, ptr, ptr, ptr, i32, i32, i32, i32, ptr, ptr, [6 x ptr] }
%struct._zend_op = type { ptr, %union._znode_op, %union._znode_op, %union._znode_op, i32, i32, i8, i8, i8, i8 }
%union._znode_op = type { i32 }
%struct.zend_get_gc_buffer = type { ptr, ptr, ptr }
%struct._zend_call_stack = type { ptr, i64 }
%struct._zend_class_entry = type { i8, ptr, %union.anon.4, i32, i32, i32, i32, ptr, ptr, ptr, %struct._zend_array, %struct._zend_array, %struct._zend_array, ptr, ptr, ptr, ptr, ptr, ptr, ptr, ptr, ptr, ptr, ptr, ptr, ptr, ptr, ptr, ptr, ptr, ptr, ptr, %union.anon.8, ptr, ptr, ptr, ptr, i32, i32, %union.anon.9, ptr, ptr, ptr, ptr, i32, ptr, ptr, %union.anon.10 }
%union.anon.4 = type { ptr }
%union.anon.8 = type { ptr }
%union.anon.9 = type { ptr }
%union.anon.10 = type { %struct.anon.11 }
%struct.anon.11 = type { ptr, i32, i32 }
%struct.anon.12 = type { ptr, ptr }
%struct._zend_class_mutable_data = type { ptr, ptr, i32, ptr }
%struct._zend_module_entry = type { i16, i32, i8, i8, ptr, ptr, ptr, ptr, ptr, ptr, ptr, ptr, ptr, ptr, i64, ptr, ptr, ptr, ptr, i32, i8, ptr, i32, ptr }

@zend_ce_unit_enum = global ptr null, align 8
@zend_ce_backed_enum = global ptr null, align 8
@std_object_handlers = external constant %struct._zend_object_handlers, align 8
@compiler_globals = external global %struct._zend_compiler_globals, align 8
@zend_known_strings = external global ptr, align 8
@__const.zend_enum_register_props.name_type = private unnamed_addr constant %struct.zend_type { ptr null, i32 64 }, align 8
@zend_string_init_interned = external global ptr, align 8
@unit_enum_methods = internal constant [2 x %struct._zend_function_entry] [%struct._zend_function_entry { ptr @.str.25, ptr @zend_enum_cases_func, ptr @arginfo_class_UnitEnum_cases, i32 0, i32 17, ptr null, ptr null }, %struct._zend_function_entry zeroinitializer], align 16
@executor_globals = external global %struct._zend_executor_globals, align 8

; Function Attrs: nounwind uwtable
define hidden void @zend_enum_register_props(ptr noundef %0) #0 {
  %2 = alloca ptr, align 8
  %3 = alloca %struct._zval_struct, align 8
  %4 = alloca %struct.zend_type, align 8
  %5 = alloca %struct._zval_struct, align 8
  %6 = alloca %struct.zend_type, align 8
  store ptr %0, ptr %2, align 8
  %7 = load ptr, ptr %2, align 8
  %8 = getelementptr inbounds %struct._zend_class_entry, ptr %7, i32 0, i32 4
  %9 = load i32, ptr %8, align 4
  %10 = or i32 %9, 8192
  store i32 %10, ptr %8, align 4
  br label %11

11:                                               ; preds = %1
  %12 = getelementptr inbounds %struct._zval_struct, ptr %3, i32 0, i32 1
  store i32 0, ptr %12, align 8
  br label %13

13:                                               ; preds = %11
  call void @llvm.memcpy.p0.p0.i64(ptr align 8 %4, ptr align 8 @__const.zend_enum_register_props.name_type, i64 16, i1 false)
  %14 = load ptr, ptr %2, align 8
  %15 = load ptr, ptr @zend_known_strings, align 8
  %16 = getelementptr inbounds ptr, ptr %15, i64 44
  %17 = load ptr, ptr %16, align 8
  %18 = call ptr @zend_declare_typed_property(ptr noundef %14, ptr noundef %17, ptr noundef %3, i32 noundef 129, ptr noundef null, ptr noundef byval(%struct.zend_type) align 8 %4)
  %19 = load ptr, ptr %2, align 8
  %20 = getelementptr inbounds %struct._zend_class_entry, ptr %19, i32 0, i32 44
  %21 = load i32, ptr %20, align 8
  %22 = icmp ne i32 %21, 0
  br i1 %22, label %23, label %64

23:                                               ; preds = %13
  br label %24

24:                                               ; preds = %23
  %25 = getelementptr inbounds %struct._zval_struct, ptr %5, i32 0, i32 1
  store i32 0, ptr %25, align 8
  br label %26

26:                                               ; preds = %24
  %27 = getelementptr inbounds %struct.zend_type, ptr %6, i32 0, i32 0
  store ptr null, ptr %27, align 8
  %28 = getelementptr inbounds %struct.zend_type, ptr %6, i32 0, i32 1
  %29 = load ptr, ptr %2, align 8
  %30 = getelementptr inbounds %struct._zend_class_entry, ptr %29, i32 0, i32 44
  %31 = load i32, ptr %30, align 8
  %32 = icmp eq i32 %31, 18
  br i1 %32, label %33, label %34

33:                                               ; preds = %26
  br label %55

34:                                               ; preds = %26
  %35 = load ptr, ptr %2, align 8
  %36 = getelementptr inbounds %struct._zend_class_entry, ptr %35, i32 0, i32 44
  %37 = load i32, ptr %36, align 8
  %38 = icmp eq i32 %37, 13
  br i1 %38, label %39, label %40

39:                                               ; preds = %34
  br label %53

40:                                               ; preds = %34
  %41 = load ptr, ptr %2, align 8
  %42 = getelementptr inbounds %struct._zend_class_entry, ptr %41, i32 0, i32 44
  %43 = load i32, ptr %42, align 8
  %44 = icmp eq i32 %43, 16
  br i1 %44, label %45, label %46

45:                                               ; preds = %40
  br label %51

46:                                               ; preds = %40
  %47 = load ptr, ptr %2, align 8
  %48 = getelementptr inbounds %struct._zend_class_entry, ptr %47, i32 0, i32 44
  %49 = load i32, ptr %48, align 8
  %50 = shl i32 1, %49
  br label %51

51:                                               ; preds = %46, %45
  %52 = phi i32 [ 1022, %45 ], [ %50, %46 ]
  br label %53

53:                                               ; preds = %51, %39
  %54 = phi i32 [ 2097152, %39 ], [ %52, %51 ]
  br label %55

55:                                               ; preds = %53, %33
  %56 = phi i32 [ 12, %33 ], [ %54, %53 ]
  %57 = or i32 %56, 0
  %58 = or i32 %57, 0
  store i32 %58, ptr %28, align 8
  %59 = load ptr, ptr %2, align 8
  %60 = load ptr, ptr @zend_known_strings, align 8
  %61 = getelementptr inbounds ptr, ptr %60, i64 20
  %62 = load ptr, ptr %61, align 8
  %63 = call ptr @zend_declare_typed_property(ptr noundef %59, ptr noundef %62, ptr noundef %5, i32 noundef 129, ptr noundef null, ptr noundef byval(%struct.zend_type) align 8 %6)
  br label %64

64:                                               ; preds = %55, %13
  ret void
}

; Function Attrs: nounwind uwtable
define ptr @zend_register_internal_enum(ptr noundef %0, i8 noundef zeroext %1, ptr noundef %2) #0 {
  %4 = alloca ptr, align 8
  %5 = alloca ptr, align 8
  %6 = alloca ptr, align 8
  %7 = alloca ptr, align 8
  %8 = alloca i8, align 1
  %9 = alloca ptr, align 8
  %10 = alloca %struct._zend_class_entry, align 8
  %11 = alloca ptr, align 8
  %12 = alloca ptr, align 8
  store ptr %0, ptr %7, align 8
  store i8 %1, ptr %8, align 1
  store ptr %2, ptr %9, align 8
  %13 = load i8, ptr %8, align 1
  %14 = zext i8 %13 to i32
  %15 = icmp eq i32 %14, 0
  br i1 %15, label %24, label %16

16:                                               ; preds = %3
  %17 = load i8, ptr %8, align 1
  %18 = zext i8 %17 to i32
  %19 = icmp eq i32 %18, 4
  br i1 %19, label %24, label %20

20:                                               ; preds = %16
  %21 = load i8, ptr %8, align 1
  %22 = zext i8 %21 to i32
  %23 = icmp eq i32 %22, 6
  br label %24

24:                                               ; preds = %20, %16, %3
  %25 = phi i1 [ true, %16 ], [ true, %3 ], [ %23, %20 ]
  call void @llvm.assume(i1 %25)
  call void @llvm.memset.p0.i64(ptr align 8 %10, i8 0, i64 512, i1 false)
  %26 = load ptr, ptr @zend_string_init_interned, align 8
  %27 = load ptr, ptr %7, align 8
  %28 = load ptr, ptr %7, align 8
  %29 = call i64 @strlen(ptr noundef %28) #13
  %30 = call ptr %26(ptr noundef %27, i64 noundef %29, i1 noundef zeroext true)
  %31 = getelementptr inbounds %struct._zend_class_entry, ptr %10, i32 0, i32 1
  store ptr %30, ptr %31, align 8
  %32 = getelementptr inbounds %struct._zend_class_entry, ptr %10, i32 0, i32 29
  store ptr @std_object_handlers, ptr %32, align 8
  %33 = load ptr, ptr %9, align 8
  %34 = getelementptr inbounds %struct._zend_class_entry, ptr %10, i32 0, i32 47
  %35 = getelementptr inbounds %struct.anon.12, ptr %34, i32 0, i32 0
  store ptr %33, ptr %35, align 8
  %36 = call ptr @zend_register_internal_class(ptr noundef %10)
  store ptr %36, ptr %11, align 8
  %37 = load ptr, ptr %11, align 8
  %38 = getelementptr inbounds %struct._zend_class_entry, ptr %37, i32 0, i32 4
  %39 = load i32, ptr %38, align 4
  %40 = or i32 %39, 268435456
  store i32 %40, ptr %38, align 4
  %41 = load i8, ptr %8, align 1
  %42 = zext i8 %41 to i32
  %43 = load ptr, ptr %11, align 8
  %44 = getelementptr inbounds %struct._zend_class_entry, ptr %43, i32 0, i32 44
  store i32 %42, ptr %44, align 8
  %45 = load i8, ptr %8, align 1
  %46 = zext i8 %45 to i32
  %47 = icmp ne i32 %46, 0
  br i1 %47, label %48, label %78

48:                                               ; preds = %24
  %49 = call noalias ptr @__zend_malloc(i64 noundef 56) #18
  store ptr %49, ptr %12, align 8
  %50 = load ptr, ptr %12, align 8
  call void @_zend_hash_init(ptr noundef %50, i32 noundef 0, ptr noundef @zval_ptr_dtor, i1 noundef zeroext true)
  %51 = load ptr, ptr %11, align 8
  %52 = load ptr, ptr %12, align 8
  store ptr %51, ptr %4, align 8
  store ptr %52, ptr %5, align 8
  %53 = load ptr, ptr %4, align 8
  %54 = getelementptr inbounds %struct._zend_class_entry, ptr %53, i32 0, i32 13
  %55 = load ptr, ptr %54, align 8
  %56 = icmp ne ptr %55, null
  br i1 %56, label %57, label %73

57:                                               ; preds = %48
  %58 = load ptr, ptr %4, align 8
  %59 = load i8, ptr %58, align 8
  %60 = sext i8 %59 to i32
  %61 = icmp eq i32 %60, 2
  br i1 %61, label %62, label %73

62:                                               ; preds = %57
  %63 = load ptr, ptr getelementptr inbounds (%struct._zend_compiler_globals, ptr @compiler_globals, i32 0, i32 37), align 8
  %64 = load ptr, ptr %4, align 8
  %65 = getelementptr inbounds %struct._zend_class_entry, ptr %64, i32 0, i32 13
  %66 = load ptr, ptr %65, align 8
  %67 = ptrtoint ptr %66 to i64
  %68 = getelementptr inbounds i8, ptr %63, i64 %67
  %69 = load ptr, ptr %68, align 8
  store ptr %69, ptr %6, align 8
  %70 = load ptr, ptr %5, align 8
  %71 = load ptr, ptr %6, align 8
  %72 = getelementptr inbounds %struct._zend_class_mutable_data, ptr %71, i32 0, i32 3
  store ptr %70, ptr %72, align 8
  br label %77

73:                                               ; preds = %57, %48
  %74 = load ptr, ptr %5, align 8
  %75 = load ptr, ptr %4, align 8
  %76 = getelementptr inbounds %struct._zend_class_entry, ptr %75, i32 0, i32 45
  store ptr %74, ptr %76, align 8
  br label %77

77:                                               ; preds = %73, %62
  br label %78

78:                                               ; preds = %77, %24
  %79 = load ptr, ptr %11, align 8
  call void @zend_enum_register_props(ptr noundef %79)
  %80 = load i8, ptr %8, align 1
  %81 = zext i8 %80 to i32
  %82 = icmp eq i32 %81, 0
  br i1 %82, label %83, label %94

83:                                               ; preds = %78
  %84 = load ptr, ptr %11, align 8
  %85 = load ptr, ptr %11, align 8
  %86 = getelementptr inbounds %struct._zend_class_entry, ptr %85, i32 0, i32 10
  %87 = load ptr, ptr getelementptr inbounds (%struct._zend_executor_globals, ptr @executor_globals, i32 0, i32 54), align 8
  %88 = getelementptr inbounds %struct._zend_module_entry, ptr %87, i32 0, i32 20
  %89 = load i8, ptr %88, align 4
  %90 = zext i8 %89 to i32
  %91 = call i32 @zend_register_functions(ptr noundef %84, ptr noundef @unit_enum_methods, ptr noundef %86, i32 noundef %90)
  %92 = load ptr, ptr %11, align 8
  %93 = load ptr, ptr @zend_ce_unit_enum, align 8
  call void (ptr, i32, ...) @zend_class_implements(ptr noundef %92, i32 noundef 1, ptr noundef %93)
  br label %105

94:                                               ; preds = %78
  %95 = load ptr, ptr %11, align 8
  %96 = load ptr, ptr %11, align 8
  %97 = getelementptr inbounds %struct._zend_class_entry, ptr %96, i32 0, i32 10
  %98 = load ptr, ptr getelementptr inbounds (%struct._zend_executor_globals, ptr @executor_globals, i32 0, i32 54), align 8
  %99 = getelementptr inbounds %struct._zend_module_entry, ptr %98, i32 0, i32 20
  %100 = load i8, ptr %99, align 4
  %101 = zext i8 %100 to i32
  %102 = call i32 @zend_register_functions(ptr noundef %95, ptr noundef @backed_enum_methods, ptr noundef %97, i32 noundef %101)
  %103 = load ptr, ptr %11, align 8
  %104 = load ptr, ptr @zend_ce_backed_enum, align 8
  call void (ptr, i32, ...) @zend_class_implements(ptr noundef %103, i32 noundef 1, ptr noundef %104)
  br label %105

105:                                              ; preds = %94, %83
  %106 = load ptr, ptr %11, align 8
  ret ptr %106
}